target datalayout = "e-m:e-p270:32:32-p271:32:32-p272:64:64-i64:64-f80:128-n8:16:32:64-S128"
target triple = "x86_64-pc-linux-gnu"

%struct.student = type { [100 x i8], [100 x i8], i8, i32, float, [100 x i8], %struct.student* }

@p2 = common dso_local global %struct.student* null, align 8
@p1 = common dso_local global %struct.student* null, align 8
@.str = private unnamed_addr constant [18 x i8] c"%s %s %c %d %f %s\00", align 1
@.str.1 = private unnamed_addr constant [4 x i8] c"end\00", align 1
@.str.2 = private unnamed_addr constant [3 x i8] c"%s\00", align 1
@.str.3 = private unnamed_addr constant [16 x i8] c"%s %c %d %f %s\0A\00", align 1
@.str.4 = private unnamed_addr constant [19 x i8] c"%s %s %c %d %g %s\0A\00", align 1

; Function Attrs: noinline nounwind uwtable
define dso_local %struct.student* @creat() #0 {
  %1 = alloca i32, align 4
  %2 = alloca %struct.student*, align 8
  store i32 0, i32* %1, align 4
  %3 = call noalias i8* @malloc(i64 100) #4
  %4 = bitcast i8* %3 to %struct.student*
  store %struct.student* %4, %struct.student** @p2, align 8
  store %struct.student* %4, %struct.student** @p1, align 8
  %5 = load %struct.student*, %struct.student** @p1, align 8
  %6 = getelementptr inbounds %struct.student, %struct.student* %5, i32 0, i32 0
  %7 = getelementptr inbounds [100 x i8], [100 x i8]* %6, i64 0, i64 0
  %8 = load %struct.student*, %struct.student** @p1, align 8
  %9 = getelementptr inbounds %struct.student, %struct.student* %8, i32 0, i32 1
  %10 = getelementptr inbounds [100 x i8], [100 x i8]* %9, i64 0, i64 0
  %11 = load %struct.student*, %struct.student** @p1, align 8
  %12 = getelementptr inbounds %struct.student, %struct.student* %11, i32 0, i32 2
  %13 = load %struct.student*, %struct.student** @p1, align 8
  %14 = getelementptr inbounds %struct.student, %struct.student* %13, i32 0, i32 3
  %15 = load %struct.student*, %struct.student** @p1, align 8
  %16 = getelementptr inbounds %struct.student, %struct.student* %15, i32 0, i32 4
  %17 = load %struct.student*, %struct.student** @p1, align 8
  %18 = getelementptr inbounds %struct.student, %struct.student* %17, i32 0, i32 5
  %19 = getelementptr inbounds [100 x i8], [100 x i8]* %18, i64 0, i64 0
  %20 = call i32 (i8*, ...) @__isoc99_scanf(i8* getelementptr inbounds ([18 x i8], [18 x i8]* @.str, i64 0, i64 0), i8* %7, i8* %10, i8* %12, i32* %14, float* %16, i8* %19)
  store %struct.student* null, %struct.student** %2, align 8
  br label %21

21:                                               ; preds = %65, %0
  %22 = load %struct.student*, %struct.student** @p1, align 8
  %23 = getelementptr inbounds %struct.student, %struct.student* %22, i32 0, i32 0
  %24 = getelementptr inbounds [100 x i8], [100 x i8]* %23, i64 0, i64 0
  %25 = call i32 @strcmp(i8* %24, i8* getelementptr inbounds ([4 x i8], [4 x i8]* @.str.1, i64 0, i64 0)) #5
  %26 = icmp ne i32 %25, 0
  br i1 %26, label %27, label %66

27:                                               ; preds = %21
  %28 = load i32, i32* %1, align 4
  %29 = add nsw i32 %28, 1
  store i32 %29, i32* %1, align 4
  %30 = load i32, i32* %1, align 4
  %31 = icmp eq i32 %30, 1
  br i1 %31, label %32, label %34

32:                                               ; preds = %27
  %33 = load %struct.student*, %struct.student** @p1, align 8
  store %struct.student* %33, %struct.student** %2, align 8
  br label %38

34:                                               ; preds = %27
  %35 = load %struct.student*, %struct.student** @p1, align 8
  %36 = load %struct.student*, %struct.student** @p2, align 8
  %37 = getelementptr inbounds %struct.student, %struct.student* %36, i32 0, i32 6
  store %struct.student* %35, %struct.student** %37, align 8
  br label %38

38:                                               ; preds = %34, %32
  %39 = load %struct.student*, %struct.student** @p1, align 8
  store %struct.student* %39, %struct.student** @p2, align 8
  %40 = call noalias i8* @malloc(i64 100) #4
  %41 = bitcast i8* %40 to %struct.student*
  store %struct.student* %41, %struct.student** @p1, align 8
  %42 = load %struct.student*, %struct.student** @p1, align 8
  %43 = getelementptr inbounds %struct.student, %struct.student* %42, i32 0, i32 0
  %44 = getelementptr inbounds [100 x i8], [100 x i8]* %43, i64 0, i64 0
  %45 = call i32 (i8*, ...) @__isoc99_scanf(i8* getelementptr inbounds ([3 x i8], [3 x i8]* @.str.2, i64 0, i64 0), i8* %44)
  %46 = load %struct.student*, %struct.student** @p1, align 8
  %47 = getelementptr inbounds %struct.student, %struct.student* %46, i32 0, i32 0
  %48 = getelementptr inbounds [100 x i8], [100 x i8]* %47, i64 0, i64 0
  %49 = call i32 @strcmp(i8* %48, i8* getelementptr inbounds ([4 x i8], [4 x i8]* @.str.1, i64 0, i64 0)) #5
  %50 = icmp ne i32 %49, 0
  br i1 %50, label %51, label %65

51:                                               ; preds = %38
  %52 = load %struct.student*, %struct.student** @p1, align 8
  %53 = getelementptr inbounds %struct.student, %struct.student* %52, i32 0, i32 1
  %54 = getelementptr inbounds [100 x i8], [100 x i8]* %53, i64 0, i64 0
  %55 = load %struct.student*, %struct.student** @p1, align 8
  %56 = getelementptr inbounds %struct.student, %struct.student* %55, i32 0, i32 2
  %57 = load %struct.student*, %struct.student** @p1, align 8
  %58 = getelementptr inbounds %struct.student, %struct.student* %57, i32 0, i32 3
  %59 = load %struct.student*, %struct.student** @p1, align 8
  %60 = getelementptr inbounds %struct.student, %struct.student* %59, i32 0, i32 4
  %61 = load %struct.student*, %struct.student** @p1, align 8
  %62 = getelementptr inbounds %struct.student, %struct.student* %61, i32 0, i32 5
  %63 = getelementptr inbounds [100 x i8], [100 x i8]* %62, i64 0, i64 0
  %64 = call i32 (i8*, ...) @__isoc99_scanf(i8* getelementptr inbounds ([16 x i8], [16 x i8]* @.str.3, i64 0, i64 0), i8* %54, i8* %56, i32* %58, float* %60, i8* %63)
  br label %65

65:                                               ; preds = %51, %38
  br label %21

66:                                               ; preds = %21
  %67 = load %struct.student*, %struct.student** @p2, align 8
  %68 = getelementptr inbounds %struct.student, %struct.student* %67, i32 0, i32 6
  store %struct.student* null, %struct.student** %68, align 8
  %69 = load %struct.student*, %struct.student** %2, align 8
  ret %struct.student* %69
}

; Function Attrs: noinline nounwind uwtable
define dso_local void @print(%struct.student* %0) #0 {
  %2 = alloca %struct.student*, align 8
  %3 = alloca %struct.student*, align 8
  store %struct.student* %0, %struct.student** %2, align 8
  %4 = load %struct.student*, %struct.student** %2, align 8
  store %struct.student* %4, %struct.student** %3, align 8
  br label %5

5:                                                ; preds = %9, %1
  %6 = load %struct.student*, %struct.student** %3, align 8
  %7 = icmp ne %struct.student* %6, null
  br i1 %7, label %8, label %34

8:                                                ; preds = %5
  br label %9

9:                                                ; preds = %8
  %10 = load %struct.student*, %struct.student** %3, align 8
  %11 = getelementptr inbounds %struct.student, %struct.student* %10, i32 0, i32 0
  %12 = getelementptr inbounds [100 x i8], [100 x i8]* %11, i64 0, i64 0
  %13 = load %struct.student*, %struct.student** %3, align 8
  %14 = getelementptr inbounds %struct.student, %struct.student* %13, i32 0, i32 1
  %15 = getelementptr inbounds [100 x i8], [100 x i8]* %14, i64 0, i64 0
  %16 = load %struct.student*, %struct.student** %3, align 8
  %17 = getelementptr inbounds %struct.student, %struct.student* %16, i32 0, i32 2
  %18 = load i8, i8* %17, align 8
  %19 = sext i8 %18 to i32
  %20 = load %struct.student*, %struct.student** %3, align 8
  %21 = getelementptr inbounds %struct.student, %struct.student* %20, i32 0, i32 3
  %22 = load i32, i32* %21, align 4
  %23 = load %struct.student*, %struct.student** %3, align 8
  %24 = getelementptr inbounds %struct.student, %struct.student* %23, i32 0, i32 4
  %25 = load float, float* %24, align 8
  %26 = fpext float %25 to double
  %27 = load %struct.student*, %struct.student** %3, align 8
  %28 = getelementptr inbounds %struct.student, %struct.student* %27, i32 0, i32 5
  %29 = getelementptr inbounds [100 x i8], [100 x i8]* %28, i64 0, i64 0
  %30 = call i32 (i8*, ...) @printf(i8* getelementptr inbounds ([19 x i8], [19 x i8]* @.str.4, i64 0, i64 0), i8* %12, i8* %15, i32 %19, i32 %22, double %26, i8* %29)
  %31 = load %struct.student*, %struct.student** %3, align 8
  %32 = getelementptr inbounds %struct.student, %struct.student* %31, i32 0, i32 6
  %33 = load %struct.student*, %struct.student** %32, align 8
  store %struct.student* %33, %struct.student** %3, align 8
  br label %5

34:                                               ; preds = %5
  ret void
}

; Function Attrs: noinline nounwind uwtable
define dso_local %struct.student* @turnback(%struct.student* %0) #0 {
  %2 = alloca %struct.student*, align 8
  %3 = alloca %struct.student*, align 8
  %4 = alloca %struct.student*, align 8
  store %struct.student* %0, %struct.student** %2, align 8
  store %struct.student* null, %struct.student** %4, align 8
  br label %5

5:                                                ; preds = %32, %1
  store %struct.student* null, %struct.student** @p2, align 8
  %6 = load %struct.student*, %struct.student** %2, align 8
  store %struct.student* %6, %struct.student** @p1, align 8
  br label %7

7:                                                ; preds = %12, %5
  %8 = load %struct.student*, %struct.student** @p1, align 8
  %9 = getelementptr inbounds %struct.student, %struct.student* %8, i32 0, i32 6
  %10 = load %struct.student*, %struct.student** %9, align 8
  %11 = icmp ne %struct.student* %10, null
  br i1 %11, label %12, label %17

12:                                               ; preds = %7
  %13 = load %struct.student*, %struct.student** @p1, align 8
  store %struct.student* %13, %struct.student** @p2, align 8
  %14 = load %struct.student*, %struct.student** @p1, align 8
  %15 = getelementptr inbounds %struct.student, %struct.student* %14, i32 0, i32 6
  %16 = load %struct.student*, %struct.student** %15, align 8
  store %struct.student* %16, %struct.student** @p1, align 8
  br label %7

17:                                               ; preds = %7
  %18 = load %struct.student*, %struct.student** %4, align 8
  %19 = icmp eq %struct.student* %18, null
  br i1 %19, label %20, label %25

20:                                               ; preds = %17
  %21 = load %struct.student*, %struct.student** @p1, align 8
  store %struct.student* %21, %struct.student** %4, align 8
  %22 = load %struct.student*, %struct.student** @p2, align 8
  %23 = load %struct.student*, %struct.student** %4, align 8
  %24 = getelementptr inbounds %struct.student, %struct.student* %23, i32 0, i32 6
  store %struct.student* %22, %struct.student** %24, align 8
  store %struct.student* %22, %struct.student** %3, align 8
  br label %29

25:                                               ; preds = %17
  %26 = load %struct.student*, %struct.student** @p2, align 8
  %27 = load %struct.student*, %struct.student** %3, align 8
  %28 = getelementptr inbounds %struct.student, %struct.student* %27, i32 0, i32 6
  store %struct.student* %26, %struct.student** %28, align 8
  store %struct.student* %26, %struct.student** %3, align 8
  br label %29

29:                                               ; preds = %25, %20
  %30 = load %struct.student*, %struct.student** @p2, align 8
  %31 = getelementptr inbounds %struct.student, %struct.student* %30, i32 0, i32 6
  store %struct.student* null, %struct.student** %31, align 8
  br label %32

32:                                               ; preds = %29
  %33 = load %struct.student*, %struct.student** %2, align 8
  %34 = getelementptr inbounds %struct.student, %struct.student* %33, i32 0, i32 6
  %35 = load %struct.student*, %struct.student** %34, align 8
  %36 = icmp ne %struct.student* %35, null
  br i1 %36, label %5, label %37

37:                                               ; preds = %32
  %38 = load %struct.student*, %struct.student** %4, align 8
  ret %struct.student* %38
}

; Function Attrs: noinline nounwind uwtable
define dso_local void @main() #0 {
  %1 = alloca %struct.student*, align 8
  %2 = call %struct.student* @creat()
  store %struct.student* %2, %struct.student** %1, align 8
  %3 = load %struct.student*, %struct.student** %1, align 8
  %4 = call %struct.student* @turnback(%struct.student* %3)
  store %struct.student* %4, %struct.student** %1, align 8
  %5 = load %struct.student*, %struct.student** %1, align 8
  call void @print(%struct.student* %5)
  ret void
}